
./veer/tempFiles/TESTV.exe:     file format elf32-littleriscv


Disassembly of section .text:

80000000 <_start>:
80000000:	7004b597          	auipc	a1,0x7004b
80000004:	7a458593          	addi	a1,a1,1956 # f004b7a4 <input_matrix>
80000008:	7004d617          	auipc	a2,0x7004d
8000000c:	91060613          	addi	a2,a2,-1776 # f004c918 <conv_output>
80000010:	7004b517          	auipc	a0,0x7004b
80000014:	44c50513          	addi	a0,a0,1100 # f004b45c <conv_filters>
80000018:	7004b717          	auipc	a4,0x7004b
8000001c:	76470713          	addi	a4,a4,1892 # f004b77c <filter_bias>
80000020:	4421                	li	s0,8
80000022:	4481                	li	s1,0
80000024:	a009                	j	80000026 <filter_loop>

80000026 <filter_loop>:
80000026:	1484d263          	bge	s1,s0,8000016a <exit>
8000002a:	06400293          	li	t0,100
8000002e:	02548333          	mul	t1,s1,t0
80000032:	951a                	add	a0,a0,t1
80000034:	00249313          	slli	t1,s1,0x2
80000038:	971a                	add	a4,a4,t1
8000003a:	a839                	j	80000058 <conv2d>

8000003c <next_filter>:
8000003c:	7004b517          	auipc	a0,0x7004b
80000040:	42050513          	addi	a0,a0,1056 # f004b45c <conv_filters>
80000044:	7004b717          	auipc	a4,0x7004b
80000048:	73870713          	addi	a4,a4,1848 # f004b77c <filter_bias>
8000004c:	6285                	lui	t0,0x1
8000004e:	90028293          	addi	t0,t0,-1792 # 900 <MatrixSize+0x8f6>
80000052:	9616                	add	a2,a2,t0
80000054:	0485                	addi	s1,s1,1
80000056:	bfc1                	j	80000026 <filter_loop>

80000058 <conv2d>:
80000058:	00072907          	flw	fs2,0(a4)
8000005c:	42e1                	li	t0,24
8000005e:	07000313          	li	t1,112
80000062:	43d1                	li	t2,20
80000064:	06000e13          	li	t3,96
80000068:	4c81                	li	s9,0
8000006a:	a009                	j	8000006c <vertical_loop>

8000006c <vertical_loop>:
8000006c:	0e5cde63          	bge	s9,t0,80000168 <conv_exit>
80000070:	026c8eb3          	mul	t4,s9,t1
80000074:	9eae                	add	t4,t4,a1
80000076:	4b81                	li	s7,0
80000078:	a009                	j	8000007a <horizontal_loop>

8000007a <horizontal_loop>:
8000007a:	0e5bd563          	bge	s7,t0,80000164 <next_vertical>
8000007e:	212908d3          	fmv.s	fa7,fs2
80000082:	c102f057          	vsetivli	zero,5,e32,m1,tu,mu
80000086:	02056087          	vle32.v	v1,(a0)
8000008a:	020ee107          	vle32.v	v2,(t4)
8000008e:	921111d7          	vfmul.vv	v3,v1,v2
80000092:	3e305257          	vfslide1down.vf	v4,v3,ft0
80000096:	023211d7          	vfadd.vv	v3,v3,v4
8000009a:	3e305257          	vfslide1down.vf	v4,v3,ft0
8000009e:	023211d7          	vfadd.vv	v3,v3,v4
800000a2:	42301857          	vfmv.f.s	fa6,v3
800000a6:	0108f8d3          	fadd.s	fa7,fa7,fa6
800000aa:	006e8f33          	add	t5,t4,t1
800000ae:	00750fb3          	add	t6,a0,t2
800000b2:	020fe087          	vle32.v	v1,(t6)
800000b6:	020f6107          	vle32.v	v2,(t5)
800000ba:	921111d7          	vfmul.vv	v3,v1,v2
800000be:	3e305257          	vfslide1down.vf	v4,v3,ft0
800000c2:	023211d7          	vfadd.vv	v3,v3,v4
800000c6:	3e305257          	vfslide1down.vf	v4,v3,ft0
800000ca:	023211d7          	vfadd.vv	v3,v3,v4
800000ce:	42301857          	vfmv.f.s	fa6,v3
800000d2:	0108f8d3          	fadd.s	fa7,fa7,fa6
800000d6:	9f1a                	add	t5,t5,t1
800000d8:	9f9e                	add	t6,t6,t2
800000da:	020fe087          	vle32.v	v1,(t6)
800000de:	020f6107          	vle32.v	v2,(t5)
800000e2:	921111d7          	vfmul.vv	v3,v1,v2
800000e6:	3e305257          	vfslide1down.vf	v4,v3,ft0
800000ea:	023211d7          	vfadd.vv	v3,v3,v4
800000ee:	3e305257          	vfslide1down.vf	v4,v3,ft0
800000f2:	023211d7          	vfadd.vv	v3,v3,v4
800000f6:	42301857          	vfmv.f.s	fa6,v3
800000fa:	0108f8d3          	fadd.s	fa7,fa7,fa6
800000fe:	9f1a                	add	t5,t5,t1
80000100:	9f9e                	add	t6,t6,t2
80000102:	020fe087          	vle32.v	v1,(t6)
80000106:	020f6107          	vle32.v	v2,(t5)
8000010a:	921111d7          	vfmul.vv	v3,v1,v2
8000010e:	3e305257          	vfslide1down.vf	v4,v3,ft0
80000112:	023211d7          	vfadd.vv	v3,v3,v4
80000116:	3e305257          	vfslide1down.vf	v4,v3,ft0
8000011a:	023211d7          	vfadd.vv	v3,v3,v4
8000011e:	42301857          	vfmv.f.s	fa6,v3
80000122:	0108f8d3          	fadd.s	fa7,fa7,fa6
80000126:	9f1a                	add	t5,t5,t1
80000128:	9f9e                	add	t6,t6,t2
8000012a:	020fe087          	vle32.v	v1,(t6)
8000012e:	020f6107          	vle32.v	v2,(t5)
80000132:	921111d7          	vfmul.vv	v3,v1,v2
80000136:	3e305257          	vfslide1down.vf	v4,v3,ft0
8000013a:	023211d7          	vfadd.vv	v3,v3,v4
8000013e:	3e305257          	vfslide1down.vf	v4,v3,ft0
80000142:	023211d7          	vfadd.vv	v3,v3,v4
80000146:	42301857          	vfmv.f.s	fa6,v3
8000014a:	0108f8d3          	fadd.s	fa7,fa7,fa6
8000014e:	03cc8f33          	mul	t5,s9,t3
80000152:	002b9f93          	slli	t6,s7,0x2
80000156:	9f7e                	add	t5,t5,t6
80000158:	9f32                	add	t5,t5,a2
8000015a:	011f2027          	fsw	fa7,0(t5)
8000015e:	0b85                	addi	s7,s7,1
80000160:	0e91                	addi	t4,t4,4
80000162:	bf21                	j	8000007a <horizontal_loop>

80000164 <next_vertical>:
80000164:	0c85                	addi	s9,s9,1
80000166:	b719                	j	8000006c <vertical_loop>

80000168 <conv_exit>:
80000168:	bdd1                	j	8000003c <next_filter>

8000016a <exit>:
8000016a:	7004c517          	auipc	a0,0x7004c
8000016e:	7ae50513          	addi	a0,a0,1966 # f004c918 <conv_output>
80000172:	6585                	lui	a1,0x1
80000174:	20058593          	addi	a1,a1,512 # 1200 <MatrixSize+0x11f6>
80000178:	1141                	addi	sp,sp,-16
8000017a:	20d1                	jal	8000023e <relu_activation>
8000017c:	0141                	addi	sp,sp,16
8000017e:	7004c517          	auipc	a0,0x7004c
80000182:	79a50513          	addi	a0,a0,1946 # f004c918 <conv_output>

80000186 <maxpool_2x2>:
80000186:	82aa                	mv	t0,a0
80000188:	7004c517          	auipc	a0,0x7004c
8000018c:	2c050513          	addi	a0,a0,704 # f004c448 <output_max>
80000190:	4601                	li	a2,0
80000192:	06000493          	li	s1,96
80000196:	4901                	li	s2,0
80000198:	06000e93          	li	t4,96

8000019c <max_pool_outer_loop_vector>:
8000019c:	0a995063          	bge	s2,s1,8000023c <done_vector>
800001a0:	0c000a13          	li	s4,192
800001a4:	032a0ab3          	mul	s5,s4,s2
800001a8:	0905                	addi	s2,s2,1
800001aa:	43b1                	li	t2,12
800001ac:	4e01                	li	t3,0
800001ae:	4691                	li	a3,4
800001b0:	a009                	j	800001b2 <patch_loop_vector>

800001b2 <patch_loop_vector>:
800001b2:	fe7e55e3          	bge	t3,t2,8000019c <max_pool_outer_loop_vector>
800001b6:	41c387b3          	sub	a5,t2,t3
800001ba:	00d7c463          	blt	a5,a3,800001c2 <process_remaining>
800001be:	4791                	li	a5,4
800001c0:	a81d                	j	800001f6 <vectorized_processing>

800001c2 <process_remaining>:
800001c2:	45a1                	li	a1,8
800001c4:	02be0f33          	mul	t5,t3,a1
800001c8:	9f56                	add	t5,t5,s5
800001ca:	9f16                	add	t5,t5,t0
800001cc:	000f2087          	flw	ft1,0(t5)
800001d0:	004f2107          	flw	ft2,4(t5)
800001d4:	060f2187          	flw	ft3,96(t5)
800001d8:	064f2207          	flw	ft4,100(t5)
800001dc:	282090d3          	fmax.s	ft1,ft1,ft2
800001e0:	283090d3          	fmax.s	ft1,ft1,ft3
800001e4:	284090d3          	fmax.s	ft1,ft1,ft4
800001e8:	00c50733          	add	a4,a0,a2
800001ec:	00172027          	fsw	ft1,0(a4)
800001f0:	0611                	addi	a2,a2,4
800001f2:	0e05                	addi	t3,t3,1
800001f4:	bf7d                	j	800001b2 <patch_loop_vector>

800001f6 <vectorized_processing>:
800001f6:	0d07f357          	vsetvli	t1,a5,e32,m1,ta,ma
800001fa:	4301                	li	t1,0

800001fc <vector_patch_loop>:
800001fc:	02f35e63          	bge	t1,a5,80000238 <vector_done>
80000200:	45a1                	li	a1,8
80000202:	006e0f33          	add	t5,t3,t1
80000206:	02bf0f33          	mul	t5,t5,a1
8000020a:	9f56                	add	t5,t5,s5
8000020c:	9f16                	add	t5,t5,t0
8000020e:	000f2087          	flw	ft1,0(t5)
80000212:	004f2107          	flw	ft2,4(t5)
80000216:	060f2187          	flw	ft3,96(t5)
8000021a:	064f2207          	flw	ft4,100(t5)
8000021e:	282090d3          	fmax.s	ft1,ft1,ft2
80000222:	283090d3          	fmax.s	ft1,ft1,ft3
80000226:	284090d3          	fmax.s	ft1,ft1,ft4
8000022a:	00c50733          	add	a4,a0,a2
8000022e:	00172027          	fsw	ft1,0(a4)
80000232:	0611                	addi	a2,a2,4
80000234:	0305                	addi	t1,t1,1
80000236:	b7d9                	j	800001fc <vector_patch_loop>

80000238 <vector_done>:
80000238:	9e3e                	add	t3,t3,a5
8000023a:	bfa5                	j	800001b2 <patch_loop_vector>

8000023c <done_vector>:
8000023c:	2099                	jal	80000282 <dense_layer>

8000023e <relu_activation>:
8000023e:	1141                	addi	sp,sp,-16
80000240:	c606                	sw	ra,12(sp)
80000242:	c422                	sw	s0,8(sp)
80000244:	c226                	sw	s1,4(sp)
80000246:	842a                	mv	s0,a0
80000248:	84ae                	mv	s1,a1
8000024a:	d0007053          	fcvt.s.w	ft0,zero
8000024e:	c22022f3          	csrr	t0,vlenb
80000252:	0022d313          	srli	t1,t0,0x2
80000256:	0d24f3d7          	vsetvli	t2,s1,e32,m4,ta,ma

8000025a <relu_vector_loop>:
8000025a:	02046007          	vle32.v	v0,(s0)
8000025e:	1a005057          	vfmax.vf	v0,v0,ft0
80000262:	02046027          	vse32.v	v0,(s0)
80000266:	407484b3          	sub	s1,s1,t2
8000026a:	00239e13          	slli	t3,t2,0x2
8000026e:	9472                	add	s0,s0,t3
80000270:	0d24f3d7          	vsetvli	t2,s1,e32,m4,ta,ma
80000274:	fe0393e3          	bnez	t2,8000025a <relu_vector_loop>
80000278:	4492                	lw	s1,4(sp)
8000027a:	4422                	lw	s0,8(sp)
8000027c:	40b2                	lw	ra,12(sp)
8000027e:	0141                	addi	sp,sp,16
80000280:	8082                	ret

80000282 <dense_layer>:
80000282:	7004c517          	auipc	a0,0x7004c
80000286:	1c650513          	addi	a0,a0,454 # f004c448 <output_max>
8000028a:	70040597          	auipc	a1,0x70040
8000028e:	d7658593          	addi	a1,a1,-650 # f0040000 <dense_weights>
80000292:	7004b617          	auipc	a2,0x7004b
80000296:	16e60613          	addi	a2,a2,366 # f004b400 <dense_bias>
8000029a:	7004c697          	auipc	a3,0x7004c
8000029e:	65668693          	addi	a3,a3,1622 # f004c8f0 <dense_output>
800002a2:	4281                	li	t0,0
800002a4:	4329                	li	t1,10

800002a6 <dense_outer_loop>:
800002a6:	0462db63          	bge	t0,t1,800002fc <dense_done>
800002aa:	f0000053          	fmv.w.x	ft0,zero
800002ae:	4e01                	li	t3,0
800002b0:	48000e93          	li	t4,1152

800002b4 <dense_inner_loop>:
800002b4:	03de5663          	bge	t3,t4,800002e0 <dense_inner_done>
800002b8:	4fa9                	li	t6,10
800002ba:	03fe0f33          	mul	t5,t3,t6
800002be:	9f16                	add	t5,t5,t0
800002c0:	0f0a                	slli	t5,t5,0x2
800002c2:	01e58fb3          	add	t6,a1,t5
800002c6:	000fa087          	flw	ft1,0(t6)
800002ca:	002e1f93          	slli	t6,t3,0x2
800002ce:	9faa                	add	t6,t6,a0
800002d0:	000fa107          	flw	ft2,0(t6)
800002d4:	1020f1d3          	fmul.s	ft3,ft1,ft2
800002d8:	00307053          	fadd.s	ft0,ft0,ft3
800002dc:	0e05                	addi	t3,t3,1
800002de:	bfd9                	j	800002b4 <dense_inner_loop>

800002e0 <dense_inner_done>:
800002e0:	00229f93          	slli	t6,t0,0x2
800002e4:	9fb2                	add	t6,t6,a2
800002e6:	000fa207          	flw	ft4,0(t6)
800002ea:	00407053          	fadd.s	ft0,ft0,ft4
800002ee:	00229f93          	slli	t6,t0,0x2
800002f2:	9fb6                	add	t6,t6,a3
800002f4:	000fa027          	fsw	ft0,0(t6)
800002f8:	0285                	addi	t0,t0,1
800002fa:	b775                	j	800002a6 <dense_outer_loop>

800002fc <dense_done>:
800002fc:	2009                	jal	800002fe <softmax_layer>

800002fe <softmax_layer>:
800002fe:	7004c517          	auipc	a0,0x7004c
80000302:	5f250513          	addi	a0,a0,1522 # f004c8f0 <dense_output>
80000306:	7004c597          	auipc	a1,0x7004c
8000030a:	5c258593          	addi	a1,a1,1474 # f004c8c8 <p>
8000030e:	4629                	li	a2,10
80000310:	078000ef          	jal	80000388 <softmax>
80000314:	7004c597          	auipc	a1,0x7004c
80000318:	5b458593          	addi	a1,a1,1460 # f004c8c8 <p>
8000031c:	6188                	flw	fa0,0(a1)
8000031e:	61cc                	flw	fa1,4(a1)
80000320:	6590                	flw	fa2,8(a1)
80000322:	65d4                	flw	fa3,12(a1)
80000324:	6998                	flw	fa4,16(a1)
80000326:	69dc                	flw	fa5,20(a1)
80000328:	0185a807          	flw	fa6,24(a1)
8000032c:	01c5a887          	flw	fa7,28(a1)
80000330:	0205a907          	flw	fs2,32(a1)
80000334:	0245a987          	flw	fs3,36(a1)
80000338:	0001                	nop
8000033a:	a215                	j	8000045e <_end4>

8000033c <exp_approx>:
8000033c:	1101                	addi	sp,sp,-32
8000033e:	c006                	sw	ra,0(sp)
80000340:	e222                	fsw	fs0,4(sp)
80000342:	e426                	fsw	fs1,8(sp)
80000344:	e64a                	fsw	fs2,12(sp)
80000346:	c816                	sw	t0,16(sp)
80000348:	ca1a                	sw	t1,20(sp)
8000034a:	20a50453          	fmv.s	fs0,fa0
8000034e:	4285                	li	t0,1
80000350:	d002f4d3          	fcvt.s.w	fs1,t0
80000354:	d002f953          	fcvt.s.w	fs2,t0
80000358:	06400313          	li	t1,100
8000035c:	4285                	li	t0,1

8000035e <taylor_loop>:
8000035e:	10897953          	fmul.s	fs2,fs2,fs0
80000362:	d002f053          	fcvt.s.w	ft0,t0
80000366:	18097953          	fdiv.s	fs2,fs2,ft0
8000036a:	0124f4d3          	fadd.s	fs1,fs1,fs2
8000036e:	0285                	addi	t0,t0,1
80000370:	fe5357e3          	bge	t1,t0,8000035e <taylor_loop>
80000374:	20948553          	fmv.s	fa0,fs1
80000378:	4082                	lw	ra,0(sp)
8000037a:	6412                	flw	fs0,4(sp)
8000037c:	64a2                	flw	fs1,8(sp)
8000037e:	6932                	flw	fs2,12(sp)
80000380:	42c2                	lw	t0,16(sp)
80000382:	4352                	lw	t1,20(sp)
80000384:	6105                	addi	sp,sp,32
80000386:	8082                	ret

80000388 <softmax>:
80000388:	7139                	addi	sp,sp,-64
8000038a:	c006                	sw	ra,0(sp)
8000038c:	c222                	sw	s0,4(sp)
8000038e:	c426                	sw	s1,8(sp)
80000390:	c64a                	sw	s2,12(sp)
80000392:	e822                	fsw	fs0,16(sp)
80000394:	ea26                	fsw	fs1,20(sp)
80000396:	ec4a                	fsw	fs2,24(sp)
80000398:	ee4e                	fsw	fs3,28(sp)
8000039a:	f052                	fsw	fs4,32(sp)
8000039c:	f256                	fsw	fs5,36(sp)
8000039e:	d416                	sw	t0,40(sp)
800003a0:	d61a                	sw	t1,44(sp)
800003a2:	d81e                	sw	t2,48(sp)
800003a4:	842a                	mv	s0,a0
800003a6:	84ae                	mv	s1,a1
800003a8:	8932                	mv	s2,a2
800003aa:	4281                	li	t0,0
800003ac:	6000                	flw	fs0,0(s0)
800003ae:	0285                	addi	t0,t0,1

800003b0 <max_loop>:
800003b0:	0122df63          	bge	t0,s2,800003ce <max_done>
800003b4:	00229313          	slli	t1,t0,0x2
800003b8:	9322                	add	t1,t1,s0
800003ba:	00032007          	flw	ft0,0(t1)
800003be:	a00413d3          	flt.s	t2,fs0,ft0
800003c2:	00038463          	beqz	t2,800003ca <max_continue>
800003c6:	20000453          	fmv.s	fs0,ft0

800003ca <max_continue>:
800003ca:	0285                	addi	t0,t0,1
800003cc:	b7d5                	j	800003b0 <max_loop>

800003ce <max_done>:
800003ce:	4e01                	li	t3,0
800003d0:	d00e74d3          	fcvt.s.w	fs1,t3
800003d4:	7004be97          	auipc	t4,0x7004b
800003d8:	084e8e93          	addi	t4,t4,132 # f004b458 <neg_threshold>
800003dc:	000eaa87          	flw	fs5,0(t4)
800003e0:	4281                	li	t0,0

800003e2 <exp_sum_loop>:
800003e2:	0522d163          	bge	t0,s2,80000424 <exp_done>
800003e6:	00229313          	slli	t1,t0,0x2
800003ea:	9322                	add	t1,t1,s0
800003ec:	00032007          	flw	ft0,0(t1)
800003f0:	08807553          	fsub.s	fa0,ft0,fs0
800003f4:	a15513d3          	flt.s	t2,fa0,fs5
800003f8:	00038563          	beqz	t2,80000402 <calculate_exp>
800003fc:	d00e7553          	fcvt.s.w	fa0,t3
80000400:	a809                	j	80000412 <store_exp_result>

80000402 <calculate_exp>:
80000402:	da16                	sw	t0,52(sp)
80000404:	dc1a                	sw	t1,56(sp)
80000406:	fe26                	fsw	fs1,60(sp)
80000408:	f35ff0ef          	jal	8000033c <exp_approx>
8000040c:	52d2                	lw	t0,52(sp)
8000040e:	5362                	lw	t1,56(sp)
80000410:	74f2                	flw	fs1,60(sp)

80000412 <store_exp_result>:
80000412:	00229313          	slli	t1,t0,0x2
80000416:	9326                	add	t1,t1,s1
80000418:	00a32027          	fsw	fa0,0(t1)
8000041c:	00a4f4d3          	fadd.s	fs1,fs1,fa0
80000420:	0285                	addi	t0,t0,1
80000422:	b7c1                	j	800003e2 <exp_sum_loop>

80000424 <exp_done>:
80000424:	4281                	li	t0,0

80000426 <normalize_loop>:
80000426:	0122dd63          	bge	t0,s2,80000440 <normalize_done>
8000042a:	00229313          	slli	t1,t0,0x2
8000042e:	9326                	add	t1,t1,s1
80000430:	00032007          	flw	ft0,0(t1)
80000434:	18907053          	fdiv.s	ft0,ft0,fs1
80000438:	00032027          	fsw	ft0,0(t1)
8000043c:	0285                	addi	t0,t0,1
8000043e:	b7e5                	j	80000426 <normalize_loop>

80000440 <normalize_done>:
80000440:	4082                	lw	ra,0(sp)
80000442:	4412                	lw	s0,4(sp)
80000444:	44a2                	lw	s1,8(sp)
80000446:	4932                	lw	s2,12(sp)
80000448:	6442                	flw	fs0,16(sp)
8000044a:	64d2                	flw	fs1,20(sp)
8000044c:	6962                	flw	fs2,24(sp)
8000044e:	69f2                	flw	fs3,28(sp)
80000450:	7a02                	flw	fs4,32(sp)
80000452:	7a92                	flw	fs5,36(sp)
80000454:	52a2                	lw	t0,40(sp)
80000456:	5332                	lw	t1,44(sp)
80000458:	53c2                	lw	t2,48(sp)
8000045a:	6121                	addi	sp,sp,64
8000045c:	8082                	ret

8000045e <_end4>:
8000045e:	7004c517          	auipc	a0,0x7004c
80000462:	46a50513          	addi	a0,a0,1130 # f004c8c8 <p>
80000466:	45a9                	li	a1,10
80000468:	2021                	jal	80000470 <printToLogVectorized>
8000046a:	00000073          	ecall
8000046e:	8082                	ret

80000470 <printToLogVectorized>:
80000470:	1171                	addi	sp,sp,-4
80000472:	c02a                	sw	a0,0(sp)
80000474:	12300293          	li	t0,291
80000478:	45600293          	li	t0,1110
8000047c:	85ae                	mv	a1,a1
8000047e:	4281                	li	t0,0

80000480 <printloop>:
80000480:	0105fe57          	vsetvli	t3,a1,e32,m1,tu,mu
80000484:	002e1e93          	slli	t4,t3,0x2
80000488:	02056087          	vle32.v	v1,(a0)
8000048c:	9576                	add	a0,a0,t4
8000048e:	92f2                	add	t0,t0,t3
80000490:	00b2d363          	bge	t0,a1,80000496 <endPrintLoop>
80000494:	b7f5                	j	80000480 <printloop>

80000496 <endPrintLoop>:
80000496:	12300293          	li	t0,291
8000049a:	45600293          	li	t0,1110
8000049e:	4502                	lw	a0,0(sp)
800004a0:	0111                	addi	sp,sp,4
800004a2:	8082                	ret

800004a4 <_finish>:
800004a4:	d05801b7          	lui	gp,0xd0580
800004a8:	0ff00293          	li	t0,255
800004ac:	00518023          	sb	t0,0(gp) # d0580000 <_end+0x5057f8f0>
800004b0:	fe000ae3          	beqz	zero,800004a4 <_finish>
800004b4:	0001                	nop
800004b6:	0001                	nop
800004b8:	0001                	nop
800004ba:	0001                	nop
800004bc:	0001                	nop
800004be:	0001                	nop
800004c0:	0001                	nop
800004c2:	0001                	nop
800004c4:	0001                	nop
800004c6:	0001                	nop
800004c8:	0001                	nop
800004ca:	0001                	nop
800004cc:	0001                	nop
800004ce:	0001                	nop
800004d0:	0001                	nop
800004d2:	0001                	nop
800004d4:	0001                	nop
800004d6:	0001                	nop
800004d8:	0001                	nop
800004da:	0001                	nop
800004dc:	0001                	nop
800004de:	0001                	nop
800004e0:	0001                	nop
800004e2:	0001                	nop
800004e4:	0001                	nop
800004e6:	0001                	nop
800004e8:	0001                	nop
800004ea:	0001                	nop
800004ec:	0001                	nop
800004ee:	0001                	nop
800004f0:	0001                	nop
800004f2:	0001                	nop
800004f4:	0001                	nop
800004f6:	0001                	nop
800004f8:	0001                	nop
800004fa:	0001                	nop
800004fc:	0001                	nop
800004fe:	0001                	nop
80000500:	0001                	nop
80000502:	0001                	nop
80000504:	0001                	nop
80000506:	0001                	nop
80000508:	0001                	nop
8000050a:	0001                	nop
8000050c:	0001                	nop
8000050e:	0001                	nop
80000510:	0001                	nop
80000512:	0001                	nop
80000514:	0001                	nop
80000516:	0001                	nop
80000518:	0001                	nop
8000051a:	0001                	nop
8000051c:	0001                	nop
8000051e:	0001                	nop
80000520:	0001                	nop
80000522:	0001                	nop
80000524:	0001                	nop
80000526:	0001                	nop
80000528:	0001                	nop
8000052a:	0001                	nop
8000052c:	0001                	nop
8000052e:	0001                	nop
80000530:	0001                	nop
80000532:	0001                	nop
80000534:	0001                	nop
80000536:	0001                	nop
80000538:	0001                	nop
8000053a:	0001                	nop
8000053c:	0001                	nop
8000053e:	0001                	nop
80000540:	0001                	nop
80000542:	0001                	nop
80000544:	0001                	nop
80000546:	0001                	nop
80000548:	0001                	nop
8000054a:	0001                	nop
8000054c:	0001                	nop
8000054e:	0001                	nop
80000550:	0001                	nop
80000552:	0001                	nop
80000554:	0001                	nop
80000556:	0001                	nop
80000558:	0001                	nop
8000055a:	0001                	nop
8000055c:	0001                	nop
8000055e:	0001                	nop
80000560:	0001                	nop
80000562:	0001                	nop
80000564:	0001                	nop
80000566:	0001                	nop
80000568:	0001                	nop
8000056a:	0001                	nop
8000056c:	0001                	nop
8000056e:	0001                	nop
80000570:	0001                	nop
80000572:	0001                	nop
80000574:	0001                	nop
80000576:	0001                	nop
80000578:	0001                	nop
8000057a:	0001                	nop

8000057c <matrix1>:
8000057c:	c2df8000          	.word	0xc2df8000
80000580:	c416b000          	.word	0xc416b000
80000584:	44218000          	.word	0x44218000
80000588:	c3dbc000          	.word	0xc3dbc000
8000058c:	c1ce0000          	.word	0xc1ce0000
80000590:	43afa000          	.word	0x43afa000
80000594:	c42ec000          	.word	0xc42ec000
80000598:	44382000          	.word	0x44382000
8000059c:	c28b0000          	.word	0xc28b0000
800005a0:	c3e2e000          	.word	0xc3e2e000
800005a4:	c3438000          	.word	0xc3438000
800005a8:	437e8000          	.word	0x437e8000
800005ac:	c41a3000          	.word	0xc41a3000
800005b0:	44322000          	.word	0x44322000
800005b4:	43bf6000          	.word	0x43bf6000
800005b8:	44051000          	.word	0x44051000
800005bc:	44240000          	.word	0x44240000
800005c0:	439a8000          	.word	0x439a8000
800005c4:	c4110000          	.word	0xc4110000
800005c8:	c2b78000          	.word	0xc2b78000
800005cc:	44465000          	.word	0x44465000
800005d0:	c34f0000          	.word	0xc34f0000
800005d4:	c45f5000          	.word	0xc45f5000
800005d8:	c4231000          	.word	0xc4231000
800005dc:	42848000          	.word	0x42848000
800005e0:	c437a000          	.word	0xc437a000
800005e4:	c4028000          	.word	0xc4028000
800005e8:	42898000          	.word	0x42898000
800005ec:	445fb000          	.word	0x445fb000
800005f0:	c2a00000          	.word	0xc2a00000
800005f4:	41940000          	.word	0x41940000
800005f8:	446e6000          	.word	0x446e6000
800005fc:	43906000          	.word	0x43906000
80000600:	c36b0000          	.word	0xc36b0000
80000604:	44431000          	.word	0x44431000
80000608:	c4104000          	.word	0xc4104000
8000060c:	c46fe000          	.word	0xc46fe000
80000610:	4434d000          	.word	0x4434d000
80000614:	c4006000          	.word	0xc4006000
80000618:	c4637000          	.word	0xc4637000
8000061c:	439b0000          	.word	0x439b0000
80000620:	439f0000          	.word	0x439f0000
80000624:	44737000          	.word	0x44737000
80000628:	3fa00000          	.word	0x3fa00000
8000062c:	43ddc000          	.word	0x43ddc000
80000630:	4475a000          	.word	0x4475a000
80000634:	4384e000          	.word	0x4384e000
80000638:	c40a2000          	.word	0xc40a2000
8000063c:	c3888000          	.word	0xc3888000
80000640:	44391000          	.word	0x44391000
80000644:	c45d7000          	.word	0xc45d7000
80000648:	c4712000          	.word	0xc4712000
8000064c:	43f2e000          	.word	0x43f2e000
80000650:	c306c000          	.word	0xc306c000
80000654:	c3c78000          	.word	0xc3c78000
80000658:	c3bb0000          	.word	0xc3bb0000
8000065c:	434d8000          	.word	0x434d8000
80000660:	c27b0000          	.word	0xc27b0000
80000664:	40700000          	.word	0x40700000
80000668:	43dd4000          	.word	0x43dd4000
8000066c:	c1ba0000          	.word	0xc1ba0000
80000670:	43360000          	.word	0x43360000
80000674:	44534000          	.word	0x44534000
80000678:	c3b96000          	.word	0xc3b96000
8000067c:	43e14000          	.word	0x43e14000
80000680:	c4691000          	.word	0xc4691000
80000684:	4442c000          	.word	0x4442c000
80000688:	c41ef000          	.word	0xc41ef000
8000068c:	440ef000          	.word	0x440ef000
80000690:	42cd8000          	.word	0x42cd8000
80000694:	43098000          	.word	0x43098000
80000698:	440e1000          	.word	0x440e1000
8000069c:	c2e40000          	.word	0xc2e40000
800006a0:	444b4000          	.word	0x444b4000
800006a4:	4475b000          	.word	0x4475b000
800006a8:	442e8000          	.word	0x442e8000
800006ac:	44094000          	.word	0x44094000
800006b0:	c3918000          	.word	0xc3918000
800006b4:	43c68000          	.word	0x43c68000
800006b8:	c4706000          	.word	0xc4706000
800006bc:	44576000          	.word	0x44576000
800006c0:	43c00000          	.word	0x43c00000
800006c4:	43e30000          	.word	0x43e30000
800006c8:	445f1000          	.word	0x445f1000
800006cc:	c3ce0000          	.word	0xc3ce0000
800006d0:	44237000          	.word	0x44237000
800006d4:	4454b000          	.word	0x4454b000
800006d8:	4417e000          	.word	0x4417e000
800006dc:	4445f000          	.word	0x4445f000
800006e0:	429c8000          	.word	0x429c8000
800006e4:	c3db4000          	.word	0xc3db4000
800006e8:	43bd4000          	.word	0x43bd4000
800006ec:	444de000          	.word	0x444de000
800006f0:	446a9000          	.word	0x446a9000
800006f4:	c41f5000          	.word	0xc41f5000
800006f8:	43c34000          	.word	0x43c34000
800006fc:	c4565000          	.word	0xc4565000
80000700:	4445a000          	.word	0x4445a000
80000704:	44770000          	.word	0x44770000
80000708:	43b28000          	.word	0x43b28000

8000070c <size1>:
8000070c:	0000000a          	.word	0x0000000a
